; Function Attrs: mustprogress uwtable
define void @_ZN11SearchFrame8findNextEv(ptr noundef nonnull align 8 dereferenceable(104) %0) local_unnamed_addr #0 align 2 {
  %2 = getelementptr inbounds i8, ptr %0, i64 64
  %3 = load ptr, ptr %2, align 8
  %.not = icmp eq ptr %3, null
  br i1 %.not, label %19, label %4

4:                                                ; preds = %1
  %5 = getelementptr inbounds i8, ptr %0, i64 56
  %6 = load ptr, ptr %5, align 8
  %7 = getelementptr inbounds i8, ptr %6, i64 120
  %8 = load ptr, ptr %7, align 8
  tail call void @_ZN15QAbstractButton10setCheckedEb(ptr noundef nonnull align 8 dereferenceable(40) %8, i1 noundef zeroext false)
  %9 = getelementptr inbounds i8, ptr %0, i64 32
  %10 = load ptr, ptr %9, align 8
  %11 = getelementptr inbounds i8, ptr %10, i64 8
  %12 = load i32, ptr %11, align 8
  %13 = and i32 %12, 65536
  %.not1 = icmp eq i32 %13, 0
  br i1 %.not1, label %18, label %14

14:                                               ; preds = %4
  tail call void @_ZN14AccordionFrame12animatedShowEv(ptr noundef nonnull align 8 dereferenceable(56) %0)
  %15 = load ptr, ptr %5, align 8
  %16 = getelementptr inbounds i8, ptr %15, i64 48
  %17 = load ptr, ptr %16, align 8
  tail call void @_ZN7QWidget8setFocusEN2Qt11FocusReasonE(ptr noundef nonnull align 8 dereferenceable(40) %17, i32 noundef 7)
  br label %19

18:                                               ; preds = %4
  tail call void @_ZN11SearchFrame21on_findButton_clickedEv(ptr noundef nonnull align 8 dereferenceable(104) %0)
  br label %19

19:                                               ; preds = %1, %18, %14
  ret void
}